target datalayout = "e-m:e-p270:32:32-p271:32:32-p272:64:64-i64:64-i128:128-f80:128-n8:16:32:64-S128"
target triple = "x86_64-pc-linux-gnu"

%struct.AVRational = type { i32, i32 }
%struct.AVPacket = type { ptr, i64, i64, ptr, i32, i32, i32, ptr, i32, i64, i64, ptr, ptr, %struct.AVRational }
%struct.AVPacketSideData = type { ptr, i64, i32 }
%struct.PacketListEntry = type { ptr, %struct.AVPacket }
%struct.PacketList = type { ptr, ptr }

; Function Attrs: inlinehint nounwind uwtable
define internal i64 @av_make_q(i32 noundef %0, i32 noundef %1) #2 {
  %3 = alloca %struct.AVRational, align 4
  %4 = alloca i32, align 4
  %5 = alloca i32, align 4
  store i32 %0, ptr %4, align 4, !tbaa !28
  store i32 %1, ptr %5, align 4, !tbaa !28
  %6 = getelementptr inbounds nuw %struct.AVRational, ptr %3, i32 0, i32 0
  %7 = load i32, ptr %4, align 4, !tbaa !28
  store i32 %7, ptr %6, align 4, !tbaa !29
  %8 = getelementptr inbounds nuw %struct.AVRational, ptr %3, i32 0, i32 1
  %9 = load i32, ptr %5, align 4, !tbaa !28
  store i32 %9, ptr %8, align 4, !tbaa !30
  %10 = load i64, ptr %3, align 4
  ret i64 %10
}

; Function Attrs: nounwind uwtable
define internal void @get_packet_defaults(ptr noundef %0) #0 {
  %2 = alloca ptr, align 8
  %3 = alloca %struct.AVRational, align 4
  store ptr %0, ptr %2, align 8, !tbaa !4
  %4 = load ptr, ptr %2, align 8, !tbaa !4
  call void @llvm.memset.p0.i64(ptr align 8 %4, i8 0, i64 104, i1 false)
  %5 = load ptr, ptr %2, align 8, !tbaa !4
  %6 = getelementptr inbounds nuw %struct.AVPacket, ptr %5, i32 0, i32 1
  store i64 -9223372036854775808, ptr %6, align 8, !tbaa !9
  %7 = load ptr, ptr %2, align 8, !tbaa !4
  %8 = getelementptr inbounds nuw %struct.AVPacket, ptr %7, i32 0, i32 2
  store i64 -9223372036854775808, ptr %8, align 8, !tbaa !17
  %9 = load ptr, ptr %2, align 8, !tbaa !4
  %10 = getelementptr inbounds nuw %struct.AVPacket, ptr %9, i32 0, i32 10
  store i64 -1, ptr %10, align 8, !tbaa !18
  %11 = load ptr, ptr %2, align 8, !tbaa !4
  %12 = getelementptr inbounds nuw %struct.AVPacket, ptr %11, i32 0, i32 13
  call void @llvm.lifetime.start.p0(i64 8, ptr %3) #9
  %13 = call i64 @av_make_q(i32 noundef 0, i32 noundef 1)
  store i64 %13, ptr %3, align 4
  call void @llvm.memcpy.p0.p0.i64(ptr align 8 %12, ptr align 4 %3, i64 8, i1 false), !tbaa.struct !27
  call void @llvm.lifetime.end.p0(i64 8, ptr %3) #9
  ret void
}

; Function Attrs: nounwind uwtable
define void @av_packet_free_side_data(ptr noundef %0) #0 {
  %2 = alloca ptr, align 8
  %3 = alloca i32, align 4
  store ptr %0, ptr %2, align 8, !tbaa !4
  call void @llvm.lifetime.start.p0(i64 4, ptr %3) #9
  store i32 0, ptr %3, align 4, !tbaa !28
  br label %4

4:                                                ; preds = %18, %1
  %5 = load i32, ptr %3, align 4, !tbaa !28
  %6 = load ptr, ptr %2, align 8, !tbaa !4
  %7 = getelementptr inbounds nuw %struct.AVPacket, ptr %6, i32 0, i32 8
  %8 = load i32, ptr %7, align 8, !tbaa !24
  %9 = icmp slt i32 %5, %8
  br i1 %9, label %10, label %21

10:                                               ; preds = %4
  %11 = load ptr, ptr %2, align 8, !tbaa !4
  %12 = getelementptr inbounds nuw %struct.AVPacket, ptr %11, i32 0, i32 7
  %13 = load ptr, ptr %12, align 8, !tbaa !23
  %14 = load i32, ptr %3, align 4, !tbaa !28
  %15 = sext i32 %14 to i64
  %16 = getelementptr inbounds %struct.AVPacketSideData, ptr %13, i64 %15
  %17 = getelementptr inbounds nuw %struct.AVPacketSideData, ptr %16, i32 0, i32 0
  call void @av_freep(ptr noundef %17)
  br label %18

18:                                               ; preds = %10
  %19 = load i32, ptr %3, align 4, !tbaa !28
  %20 = add nsw i32 %19, 1
  store i32 %20, ptr %3, align 4, !tbaa !28
  br label %4, !llvm.loop !45

21:                                               ; preds = %4
  %22 = load ptr, ptr %2, align 8, !tbaa !4
  %23 = getelementptr inbounds nuw %struct.AVPacket, ptr %22, i32 0, i32 7
  call void @av_freep(ptr noundef %23)
  %24 = load ptr, ptr %2, align 8, !tbaa !4
  %25 = getelementptr inbounds nuw %struct.AVPacket, ptr %24, i32 0, i32 8
  store i32 0, ptr %25, align 8, !tbaa !24
  call void @llvm.lifetime.end.p0(i64 4, ptr %3) #9
  ret void
}

; Function Attrs: nounwind uwtable
define void @av_packet_unref(ptr noundef %0) #0 {
  %2 = alloca ptr, align 8
  store ptr %0, ptr %2, align 8, !tbaa !4
  %3 = load ptr, ptr %2, align 8, !tbaa !4
  call void @av_packet_free_side_data(ptr noundef %3)
  %4 = load ptr, ptr %2, align 8, !tbaa !4
  %5 = getelementptr inbounds nuw %struct.AVPacket, ptr %4, i32 0, i32 12
  call void @av_buffer_unref(ptr noundef %5)
  %6 = load ptr, ptr %2, align 8, !tbaa !4
  %7 = getelementptr inbounds nuw %struct.AVPacket, ptr %6, i32 0, i32 0
  call void @av_buffer_unref(ptr noundef %7)
  %8 = load ptr, ptr %2, align 8, !tbaa !4
  call void @get_packet_defaults(ptr noundef %8)
  ret void
}

; Function Attrs: nounwind uwtable
define void @avpriv_packet_list_free(ptr noundef %0) #0 {
  %2 = alloca ptr, align 8
  %3 = alloca ptr, align 8
  %4 = alloca ptr, align 8
  store ptr %0, ptr %2, align 8, !tbaa !74
  call void @llvm.lifetime.start.p0(i64 8, ptr %3) #9
  %5 = load ptr, ptr %2, align 8, !tbaa !74
  %6 = getelementptr inbounds nuw %struct.PacketList, ptr %5, i32 0, i32 0
  %7 = load ptr, ptr %6, align 8, !tbaa !80
  store ptr %7, ptr %3, align 8, !tbaa !76
  br label %8

8:                                                ; preds = %11, %1
  %9 = load ptr, ptr %3, align 8, !tbaa !76
  %10 = icmp ne ptr %9, null
  br i1 %10, label %11, label %18

11:                                               ; preds = %8
  call void @llvm.lifetime.start.p0(i64 8, ptr %4) #9
  %12 = load ptr, ptr %3, align 8, !tbaa !76
  store ptr %12, ptr %4, align 8, !tbaa !76
  %13 = load ptr, ptr %4, align 8, !tbaa !76
  %14 = getelementptr inbounds nuw %struct.PacketListEntry, ptr %13, i32 0, i32 0
  %15 = load ptr, ptr %14, align 8, !tbaa !78
  store ptr %15, ptr %3, align 8, !tbaa !76
  %16 = load ptr, ptr %4, align 8, !tbaa !76
  %17 = getelementptr inbounds nuw %struct.PacketListEntry, ptr %16, i32 0, i32 1
  call void @av_packet_unref(ptr noundef %17)
  call void @av_freep(ptr noundef %4)
  call void @llvm.lifetime.end.p0(i64 8, ptr %4) #9
  br label %8, !llvm.loop !83

18:                                               ; preds = %8
  %19 = load ptr, ptr %2, align 8, !tbaa !74
  %20 = getelementptr inbounds nuw %struct.PacketList, ptr %19, i32 0, i32 1
  store ptr null, ptr %20, align 8, !tbaa !82
  %21 = load ptr, ptr %2, align 8, !tbaa !74
  %22 = getelementptr inbounds nuw %struct.PacketList, ptr %21, i32 0, i32 0
  store ptr null, ptr %22, align 8, !tbaa !80
  call void @llvm.lifetime.end.p0(i64 8, ptr %3) #9
  ret void
}