; Function Attrs: nounwind uwtable
define void @avpriv_packet_list_free(ptr noundef captures(none) %0) local_unnamed_addr #3 {
  %2 = alloca ptr, align 8
  %3 = load ptr, ptr %0, align 8, !tbaa !58
  %.not5 = icmp eq ptr %3, null
  br i1 %.not5, label %._crit_edge, label %.lr.ph

.lr.ph:                                           ; preds = %1, %av_packet_unref.exit
  %.06 = phi ptr [ %4, %av_packet_unref.exit ], [ %3, %1 ]
  call void @llvm.lifetime.start.p0(i64 8, ptr nonnull %2) #16
  store ptr %.06, ptr %2, align 8, !tbaa !61
  %4 = load ptr, ptr %.06, align 8, !tbaa !55
  %5 = getelementptr inbounds nuw i8, ptr %.06, i64 8
  %6 = getelementptr inbounds nuw i8, ptr %.06, i64 64
  %7 = load i32, ptr %6, align 8, !tbaa !22
  %8 = icmp sgt i32 %7, 0
  br i1 %8, label %.lr.ph.i.i, label %av_packet_unref.exit

.lr.ph.i.i:                                       ; preds = %.lr.ph
  %9 = getelementptr inbounds nuw i8, ptr %.06, i64 56
  br label %10

10:                                               ; preds = %10, %.lr.ph.i.i
  %indvars.iv.i.i = phi i64 [ 0, %.lr.ph.i.i ], [ %indvars.iv.next.i.i, %10 ]
  %11 = load ptr, ptr %9, align 8, !tbaa !21
  %12 = getelementptr inbounds nuw %struct.AVPacketSideData, ptr %11, i64 %indvars.iv.i.i
  call void @av_freep(ptr noundef %12) #16
  %indvars.iv.next.i.i = add nuw nsw i64 %indvars.iv.i.i, 1
  %13 = load i32, ptr %6, align 8, !tbaa !22
  %14 = sext i32 %13 to i64
  %15 = icmp slt i64 %indvars.iv.next.i.i, %14
  br i1 %15, label %10, label %av_packet_unref.exit, !llvm.loop !25

av_packet_unref.exit:                             ; preds = %10, %.lr.ph
  %16 = getelementptr inbounds nuw i8, ptr %.06, i64 56
  call void @av_freep(ptr noundef nonnull %16) #16
  store i32 0, ptr %6, align 8, !tbaa !22
  %17 = getelementptr inbounds nuw i8, ptr %.06, i64 96
  call void @av_buffer_unref(ptr noundef nonnull %17) #16
  call void @av_buffer_unref(ptr noundef nonnull %5) #16
  call void @llvm.memset.p0.i64(ptr noundef nonnull align 8 dereferenceable(104) %5, i8 0, i64 96, i1 false)
  %18 = getelementptr inbounds nuw i8, ptr %.06, i64 16
  store i64 -9223372036854775808, ptr %18, align 8, !tbaa !4
  %19 = getelementptr inbounds nuw i8, ptr %.06, i64 24
  store i64 -9223372036854775808, ptr %19, align 8, !tbaa !15
  %20 = getelementptr inbounds nuw i8, ptr %.06, i64 80
  store i64 -1, ptr %20, align 8, !tbaa !16
  %21 = getelementptr inbounds nuw i8, ptr %.06, i64 104
  store i64 4294967296, ptr %21, align 8
  call void @av_freep(ptr noundef nonnull %2) #16
  call void @llvm.lifetime.end.p0(i64 8, ptr nonnull %2) #16
  %.not = icmp eq ptr %4, null
  br i1 %.not, label %._crit_edge, label %.lr.ph, !llvm.loop !62

._crit_edge:                                      ; preds = %av_packet_unref.exit, %1
  call void @llvm.memset.p0.i64(ptr noundef nonnull align 8 dereferenceable(16) %0, i8 0, i64 16, i1 false)
  ret void
}